; Function Attrs: mustprogress uwtable
define void @_ZN16PacketListRecord12columnStringEP13_capture_fileib(ptr dead_on_unwind noalias nocapture writable writeonly sret(%class.QString) align 8 %0, ptr nocapture noundef nonnull align 8 dereferenceable(37) %1, ptr noundef %2, i32 noundef %3, i1 noundef zeroext %4) local_unnamed_addr #5 align 2 personality ptr @__gxx_personality_v0 {
  %6 = icmp eq ptr %2, null
  %7 = icmp slt i32 %3, 0
  %or.cond = or i1 %6, %7
  br i1 %or.cond, label %11, label %8

8:                                                ; preds = %5
  %9 = getelementptr inbounds i8, ptr %2, i64 312
  %10 = load i32, ptr %9, align 8
  %.not = icmp sgt i32 %10, %3
  br i1 %.not, label %12, label %11

11:                                               ; preds = %8, %5
  tail call void @llvm.memset.p0.i64(ptr noundef nonnull align 8 dereferenceable(24) %0, i8 0, i64 24, i1 false)
  br label %_ZN7QStringC2ERKS_.exit

12:                                               ; preds = %8
  br i1 %4, label %13, label %17

13:                                               ; preds = %12
  %14 = getelementptr inbounds i8, ptr %1, i64 28
  %15 = load i8, ptr %14, align 4
  %16 = and i8 %15, 1
  %.not20 = icmp eq i8 %16, 0
  br i1 %.not20, label %.thread23, label %17

17:                                               ; preds = %12, %13
  %18 = getelementptr inbounds i8, ptr %1, i64 24
  %19 = load i32, ptr %18, align 8
  %20 = load i32, ptr @_ZN16PacketListRecord15rows_color_ver_E, align 4
  %.not29 = icmp eq i32 %19, %20
  br i1 %.not29, label %21, label %.thread23

21:                                               ; preds = %17
  %22 = getelementptr inbounds i8, ptr %1, i64 8
  %23 = load ptr, ptr %22, align 8
  %24 = tail call noundef ptr @_ZNK6QCacheIj5QListI7QStringEE6relinkERKj(ptr noundef nonnull align 8 dereferenceable(72) @_ZN16PacketListRecord15col_text_cache_E, ptr noundef nonnull align 4 dereferenceable(4) %23) #20
  %25 = icmp eq ptr %24, null
  br i1 %25, label %.thread23, label %26

26:                                               ; preds = %21
  %27 = zext nneg i32 %3 to i64
  %28 = getelementptr inbounds i8, ptr %24, i64 16
  %29 = load i64, ptr %28, align 8
  %.not21 = icmp sgt i64 %29, %27
  br i1 %.not21, label %30, label %.thread23

30:                                               ; preds = %26
  %31 = getelementptr inbounds i8, ptr %24, i64 8
  %32 = load ptr, ptr %31, align 8
  %33 = getelementptr %class.QString, ptr %32, i64 %27, i32 0, i32 1
  %34 = load ptr, ptr %33, align 8
  %.not.i.i = icmp eq ptr %34, null
  br i1 %.not.i.i, label %.thread23, label %.thread25

.thread23:                                        ; preds = %13, %17, %21, %26, %30
  %35 = phi i1 [ false, %30 ], [ false, %26 ], [ false, %21 ], [ true, %17 ], [ true, %13 ]
  tail call void @_ZN16PacketListRecord7dissectEP13_capture_filebb(ptr noundef nonnull align 8 dereferenceable(37) %1, ptr noundef nonnull %2, i1 noundef zeroext true, i1 noundef zeroext %35)
  %36 = getelementptr inbounds i8, ptr %1, i64 8
  %37 = load ptr, ptr %36, align 8
  %38 = tail call noundef ptr @_ZNK6QCacheIj5QListI7QStringEE6relinkERKj(ptr noundef nonnull align 8 dereferenceable(72) @_ZN16PacketListRecord15col_text_cache_E, ptr noundef nonnull align 4 dereferenceable(4) %37) #20
  %.not22 = icmp eq ptr %38, null
  br i1 %.not22, label %50, label %.thread23..thread25_crit_edge

.thread23..thread25_crit_edge:                    ; preds = %.thread23
  %.phi.trans.insert = getelementptr inbounds i8, ptr %38, i64 8
  %.pre = load ptr, ptr %.phi.trans.insert, align 8
  %.pre30 = zext nneg i32 %3 to i64
  br label %.thread25

.thread25:                                        ; preds = %.thread23..thread25_crit_edge, %30
  %.pre-phi = phi i64 [ %.pre30, %.thread23..thread25_crit_edge ], [ %27, %30 ]
  %39 = phi ptr [ %.pre, %.thread23..thread25_crit_edge ], [ %32, %30 ]
  %40 = getelementptr %class.QString, ptr %39, i64 %.pre-phi
  %41 = load ptr, ptr %40, align 8
  store ptr %41, ptr %0, align 8
  %42 = getelementptr inbounds i8, ptr %0, i64 8
  %43 = getelementptr inbounds i8, ptr %40, i64 8
  %44 = load ptr, ptr %43, align 8
  store ptr %44, ptr %42, align 8
  %45 = getelementptr inbounds i8, ptr %0, i64 16
  %46 = getelementptr inbounds i8, ptr %40, i64 16
  %47 = load i64, ptr %46, align 8
  store i64 %47, ptr %45, align 8
  %.not.i.i.i = icmp eq ptr %41, null
  br i1 %.not.i.i.i, label %_ZN7QStringC2ERKS_.exit, label %48

48:                                               ; preds = %.thread25
  %49 = atomicrmw add ptr %41, i32 1 seq_cst, align 4
  br label %_ZN7QStringC2ERKS_.exit

50:                                               ; preds = %.thread23
  tail call void @llvm.memset.p0.i64(ptr noundef nonnull align 8 dereferenceable(24) %0, i8 0, i64 24, i1 false)
  br label %_ZN7QStringC2ERKS_.exit

_ZN7QStringC2ERKS_.exit:                          ; preds = %48, %.thread25, %50, %11
  ret void
}